; Function Attrs: mustprogress nounwind uwtable
define internal void @"_ZN4absl13cord_internal19CordRepExternalImplIZNS_4Cord15FlattenSlowPathEvE3$_0E7ReleaseEPNS0_15CordRepExternalE"(ptr noundef %0) #7 align 2 personality ptr @__gxx_personality_v0 {
  %2 = icmp eq ptr %0, null
  br i1 %2, label %5, label %3

3:                                                ; preds = %1
  %.val = load i64, ptr %0, align 8
  %4 = getelementptr i8, ptr %0, i64 16
  %.val1 = load ptr, ptr %4, align 8
  tail call void @_ZdlPvm(ptr noundef %.val1, i64 noundef %.val) #25
  tail call void @_ZdlPvm(ptr noundef nonnull %0, i64 noundef 32) #25
  br label %5

5:                                                ; preds = %3, %1
  ret void
}